target datalayout = "e-m:e-p270:32:32-p271:32:32-p272:64:64-i64:64-i128:128-f80:128-n8:16:32:64-S128"
target triple = "x86_64-pc-linux-gnu"

@.str.16 = private unnamed_addr constant [2 x i8] c"\0A\00", align 1
@.str.17 = private unnamed_addr constant [38 x i8] c"    fsm_detect [options] [selection]\0A\00", align 1
@.str.18 = private unnamed_addr constant [74 x i8] c"This pass detects finite state machines by identifying the state signal.\0A\00", align 1
@.str.19 = private unnamed_addr constant [73 x i8] c"The state signal is then marked by setting the attribute 'fsm_encoding'\0A\00", align 1
@.str.20 = private unnamed_addr constant [32 x i8] c"on the state signal to \22auto\22.\0A\00", align 1
@.str.21 = private unnamed_addr constant [24 x i8] c"    -ignore-self-reset\0A\00", align 1
@.str.22 = private unnamed_addr constant [51 x i8] c"        Mark FSMs even if they are self-resetting\0A\00", align 1
@.str.23 = private unnamed_addr constant [66 x i8] c"Existing 'fsm_encoding' attributes are not changed by this pass.\0A\00", align 1
@.str.24 = private unnamed_addr constant [74 x i8] c"Signals can be protected from being detected by this pass by setting the\0A\00", align 1
@.str.25 = private unnamed_addr constant [37 x i8] c"'fsm_encoding' attribute to \22none\22.\0A\00", align 1
@.str.26 = private unnamed_addr constant [79 x i8] c"This pass uses a subset of FF types to detect FSMs. Run 'opt -nosdff -nodffe'\0A\00", align 1
@.str.27 = private unnamed_addr constant [56 x i8] c"before this pass to prepare the design for fsm_detect.\0A\00", align 1

; Function Attrs: mustprogress uwtable
define internal void @_ZN12_GLOBAL__N_113FsmDetectPass4helpEv(ptr noundef nonnull align 8 dereferenceable(104) %0) unnamed_addr #4 align 2 {
  %2 = alloca ptr, align 8
  store ptr %0, ptr %2, align 8
  call void (ptr, ...) @_ZN5Yosys3logEPKcz(ptr noundef @.str.16)
  call void (ptr, ...) @_ZN5Yosys3logEPKcz(ptr noundef @.str.17)
  call void (ptr, ...) @_ZN5Yosys3logEPKcz(ptr noundef @.str.16)
  call void (ptr, ...) @_ZN5Yosys3logEPKcz(ptr noundef @.str.18)
  call void (ptr, ...) @_ZN5Yosys3logEPKcz(ptr noundef @.str.19)
  call void (ptr, ...) @_ZN5Yosys3logEPKcz(ptr noundef @.str.20)
  call void (ptr, ...) @_ZN5Yosys3logEPKcz(ptr noundef @.str.16)
  call void (ptr, ...) @_ZN5Yosys3logEPKcz(ptr noundef @.str.21)
  call void (ptr, ...) @_ZN5Yosys3logEPKcz(ptr noundef @.str.22)
  call void (ptr, ...) @_ZN5Yosys3logEPKcz(ptr noundef @.str.16)
  call void (ptr, ...) @_ZN5Yosys3logEPKcz(ptr noundef @.str.23)
  call void (ptr, ...) @_ZN5Yosys3logEPKcz(ptr noundef @.str.16)
  call void (ptr, ...) @_ZN5Yosys3logEPKcz(ptr noundef @.str.24)
  call void (ptr, ...) @_ZN5Yosys3logEPKcz(ptr noundef @.str.25)
  call void (ptr, ...) @_ZN5Yosys3logEPKcz(ptr noundef @.str.16)
  call void (ptr, ...) @_ZN5Yosys3logEPKcz(ptr noundef @.str.26)
  call void (ptr, ...) @_ZN5Yosys3logEPKcz(ptr noundef @.str.27)
  call void (ptr, ...) @_ZN5Yosys3logEPKcz(ptr noundef @.str.16)
  ret void
}